(lp1
(VAVGUANTITYTEMP_FUELT_R
p2
(I-1
I-1
ttp3
a(VTempInputFiltered_FuelT_R
p4
(I2105407
I-1
ttp5
a(VTotalTempInput_FuelT_R
p6
(I2105409
I-1
ttp7
a(VTempInputArray_FuelT_R
p8
(I2105413
I-1
ttp9
a(VTempLevel_Normalized_FuelT_R
p10
(I2105613
I-1
ttp11
a(VTEMPLEVEL0_ANALOG_FUELT_R
p12
(I-1
I-1
ttp13
a(VTEMPLEVEL0_FUELT_R
p14
(I-1
I-1
ttp15
a(VTEMPLEVEL1_ANALOG_FUELT_R
p16
(I-1
I-1
ttp17
a(VTEMPLEVEL1_FUELT_R
p18
(I-1
I-1
ttp19
a.