(lp1
(VStat_AmberLamp_fromECM
p2
(I2097400
I-1
ttp3
a(VStat_RedLamp_fromECM
p4
(I2097401
I-1
ttp5
a(VStat_CheckTransLamp_fromTCM
p6
(I2097402
I-1
ttp7
a(VStat_ABS_IndicatorLamp
p8
(I2097403
I-1
ttp9
a(VStat_BatteryIndicatorLamp
p10
(I2097404
I-1
ttp11
a(VStat_TransOilTempLamp
p12
(I2097405
I-1
ttp13
a(VStat_BrakeIndicatorLamp
p14
(I2097406
I-1
ttp15
a(VStat_Wait2StartLamp
p16
(I2097407
I-1
ttp17
a(VStat_WeatherCold
p18
(I2097408
I-1
ttp19
a(VStat_OilFilterDirtiness_1
p20
(I2097409
I-1
ttp21
a(VStat_OilFilterDirtiness_2
p22
(I2097410
I-1
ttp23
a.