(lp1
(VGIGAEngineSpeedGaugeValue_Min
p2
(I1332794
I-1
ttp3
a(VGIGAEngineSpeedGaugeValue_Mid
p4
(L1461966L
I-1
ttp5
a(VGIGAEngineSpeedGaugeValue_Max
p6
(L1461968L
I-1
ttp7
a(VGIGAEngineSpeedGaugeValue_1
p8
(I-1
I-1
ttp9
a(VGIGAEngineSpeedGaugeValue_2
p10
(I-1
I-1
ttp11
a(VGIGAEngineSpeedGaugeValue_3
p12
(I-1
I-1
ttp13
a(VGIGAEngineSpeedGaugeValue_4
p14
(I-1
I-1
ttp15
a(VGIGAEngineSpeedGaugeValue_5
p16
(I-1
I-1
ttp17
a.