(lp1
(VAverageQuantityTem_2
p2
(L2124352L
I-1
ttp3
a(VTemInputFiltered_2
p4
(I2103680
I-1
ttp5
a(VTotalTemInput_2
p6
(I2103682
I-1
ttp7
a(VTemInputArray_2
p8
(I2103686
I-1
ttp9
a(VTemLevelNormalized_2
p10
(I2103926
I-1
ttp11
a(VAverageQuantityTem_22
p12
(L2124241L
I-1
ttp13
a(VTemInputFiltered_22
p14
(I2103928
I-1
ttp15
a(VTotalTemInput_22
p16
(I2103930
I-1
ttp17
a(VTemInputArray_22
p18
(I2103934
I-1
ttp19
a(VTemLevelNormalized_22
p20
(I2104174
I-1
ttp21
a.