(lp1
(VStat_BlackOut_S1
p2
(I2103074
I-1
ttp3
a(VStat_BlackOut_S2
p4
(I2103075
I-1
ttp5
a(VStat_BlackOut_S3
p6
(I2103076
I-1
ttp7
a(VStat_BlackOut_Tag
p8
(I2103077
I-1
ttp9
a(VStat_BlackOut_1
p10
(I2103078
I-1
ttp11
a(VStat_BlackOut_2
p12
(I2103079
I-1
ttp13
a(VStat_BO_InitiorLamp
p14
(I2103080
I-1
ttp15
a(VStat_BO_ParkLamp
p16
(I2103081
I-1
ttp17
a(VStat_BO_StopLamp
p18
(I2103082
I-1
ttp19
a(VStat_BO_FollowLight
p20
(I2103083
I-1
ttp21
a(VStat_BlackOut_S1_t
p22
(I2103084
I-1
ttp23
a(VStat_BlackOut_S2_t
p24
(I2103085
I-1
ttp25
a(VStat_BlackOut_S3_t
p26
(I2103086
I-1
ttp27
a(VStat_BlackOut_Tag_t
p28
(I2103087
I-1
ttp29
a(VStat_BlackOut_1_t
p30
(I2103088
I-1
ttp31
a(VStat_BlackOut_2_t
p32
(I2103089
I-1
ttp33
a(VStat_BlackOut_H2L
p34
(I2103090
I-1
ttp35
a(VBlackOut_DBCtr
p36
(I2103091
I-1
ttp37
a(VStat_BlackOut0
p38
(I2103093
I-1
ttp39
a(VStat_BlackOut
p40
(I2103094
I-1
ttp41
a.