(lp1
(VEBS_MoreThanOneActiveFault
p2
(I2100939
I-1
ttp3
a(VEBS_starting
p4
(I2100940
I-1
ttp5
a(VEBS_dtcSpnEngine
p6
(I2100941
I-1
ttp7
a(VEBS_dtcFmiEngine
p8
(I2101345
I-1
ttp9
a(VEBS_led_AWL_Engine
p10
(I2101446
I-1
ttp11
a(VEBS_led_RSL_Engine
p12
(I2101447
I-1
ttp13
a(VEBS_led_RPL_Engine
p14
(I2101448
I-1
ttp15
a.