(lp1
(VAverageQuantitySpeedometer
p2
(I-1
I-1
ttp3
a(VSpeedometerInputFiltered
p4
(L1458484L
I-1
ttp5
a(VTotalSpeedometerInput
p6
(L1458488L
I-1
ttp7
a(VSpeedometerInputArray
p8
(L1460492L
I-1
ttp9
a(VSpeedometer
p10
(L1458486L
I-1
ttp11
a.