(lp1
(VHTempAverageQuantity_2
p2
(L2123763L
I-1
ttp3
a(VHTempInputFiltered_2
p4
(L2128897L
I-1
ttp5
a(VHTempTotalInput_2
p6
(L2128901L
I-1
ttp7
a(VHTempInputArray_2
p8
(L2130677L
I-1
ttp9
a(VHTempLevel_Normalized_2
p10
(L2128899L
I-1
ttp11
a.