(lp1
(VStat_HydraulicDoorOpened
p2
(I2104179
I-1
ttp3
a(VStat_HydraulicDoorClosed
p4
(I2104180
I-1
ttp5
a(VStat_GunTowerDoor_1
p6
(I2104181
I-1
ttp7
a(VStat_GunTowerDoor_2
p8
(I2104182
I-1
ttp9
a(VButtonDebounceVal
p10
(I-1
I-1
ttp11
a(VBackDoor_IN_Open_DBCtr
p12
(I2104183
I-1
ttp13
a(VBackDoor_OUT_Open_DBCtr
p14
(I2104185
I-1
ttp15
a(VBackDoor_IN_Close_DBCtr
p16
(I2104187
I-1
ttp17
a(VBackDoor_OUT_Close_DBCtr
p18
(I2104189
I-1
ttp19
a(VHydraulicDoorClosed_DBCtr
p20
(I2104191
I-1
ttp21
a(VHydraulicDoorClosedDebounceVal
p22
(I-1
I-1
ttp23
a(VBackDoorHandle_Open_DBCtr
p24
(I2104193
I-1
ttp25
a(VbackDoorTest_state
p26
(I2104195
I-1
ttp27
a(VbackDoorTest_buzzer
p28
(I2104197
I-1
ttp29
a(VbackDoorTest_prd
p30
(L2131727L
I-1
ttp31
a.