(lp1
(VCmd_EngineProtection
p2
(I2102958
I-1
ttp3
a(VStat_EngineProtection
p4
(I2102959
I-1
ttp5
a(VStat_EngineProtectionLED
p6
(I2102960
I-1
ttp7
a(VStat_EngineProtectionERR
p8
(I2102961
I-1
ttp9
a(VTimerEngineOverride
p10
(I2102962
I-1
ttp11
a(VTimerDelta_EngineOverride
p12
(I2102978
I-1
ttp13
a(VStat_EngProtectionSystemTimerOverride
p14
(I2102982
I-1
ttp15
a(VStat_EngineProtection_Ctr1
p16
(I2102983
I-1
ttp17
a(VTriggerEngineProtection
p18
(I2102987
I-1
ttp19
a.