(lp1
(VAverageQuantityGIGA_ServiceBrake1
p2
(I-1
I-1
ttp3
a(VServiceBrake1InputFiltered
p4
(I1332806
I-1
ttp5
a(VTotalGIGA_ServiceBrake1Input
p6
(I1332808
I-1
ttp7
a(VGIGA_ServiceBrake1InputArray
p8
(I1332812
I-1
ttp9
a(VGIGA_ServiceBrake1
p10
(I1333012
I-1
ttp11
a(VAverageQuantityGIGA_ServiceBrake2
p12
(I-1
I-1
ttp13
a(VServiceBrake2InputFiltered
p14
(I1333013
I-1
ttp15
a(VTotalGIGA_ServiceBrake2Input
p16
(I1333014
I-1
ttp17
a(VGIGA_ServiceBrake2InputArray
p18
(I1333018
I-1
ttp19
a(VGIGA_ServiceBrake2
p20
(I1333218
I-1
ttp21
a(VAverageQuantityGIGA_ParkingBrakePressure
p22
(I-1
I-1
ttp23
a(VParkingBrakePressureInputFiltered
p24
(I1333219
I-1
ttp25
a(VTotalGIGA_ParkingBrakePressureInput
p26
(I1333220
I-1
ttp27
a(VGIGA_ParkingBrakePressureInputArray
p28
(I1333224
I-1
ttp29
a(VGIGA_ParkingBrakePressure
p30
(I1333424
I-1
ttp31
a(VAverageQuantityGIGA_AccessoryPressure
p32
(I-1
I-1
ttp33
a(VAccessoryPressureInputFiltered
p34
(I1333425
I-1
ttp35
a(VTotalGIGA_AccessoryPressureInput
p36
(I1333426
I-1
ttp37
a(VGIGA_AccessoryPressureInputArray
p38
(I1333430
I-1
ttp39
a(VGIGA_AccessoryPressure
p40
(I1333630
I-1
ttp41
a(VGIGA_HyraulicLevel
p42
(I1333631
I-1
ttp43
a(VGIGA_HyraulicTemp
p44
(I1333632
I-1
ttp45
a(VGIGA_VVRPump
p46
(I1333634
I-1
ttp47
a(VGIGA_VVRPumpTrigger
p48
(I1333636
I-1
ttp49
a(VGIGA_CACTemp
p50
(I1333638
I-1
ttp51
a(VGIGA_RadiatorTemp
p52
(I1333640
I-1
ttp53
a.