(lp1
(VECM_MoreThanOneActiveFault
p2
(I2097432
I-1
ttp3
a(VECM_starting
p4
(I2097433
I-1
ttp5
a(VECM_dtcSpnEngine
p6
(I2097434
I-1
ttp7
a(VECM_dtcFmiEngine
p8
(I2097838
I-1
ttp9
a(VECM_led_AWL_Engine
p10
(I2097939
I-1
ttp11
a(VECM_led_RSL_Engine
p12
(I2097940
I-1
ttp13
a(VECM_led_RPL_Engine
p14
(I2097941
I-1
ttp15
a.