(lp1
(Vservice_brake_tank_1_fb
p2
(I4575424
I-1
ttp3
a(Vservice_brake_tank_1_input
p4
(I4575426
I-1
ttp5
a(Vservice_brake_tank_2_fb
p6
(I4575428
I-1
ttp7
a(Vservice_brake_tank_2_input
p8
(I4575430
I-1
ttp9
a(Vpark_brake_tank_fb
p10
(I4575432
I-1
ttp11
a(Vpark_brake_tank_input
p12
(I4575434
I-1
ttp13
a(Vaccessory_tank_fb
p14
(I4575436
I-1
ttp15
a(Vaccessory_tank_input
p16
(I4575437
I-1
ttp17
a(Vhydraulic_tank_pressure_fb
p18
(I4575438
I-1
ttp19
a(Vhydraulic_tank_pressure_input
p20
(I4575439
I-1
ttp21
a(Vfuel_level_left_fb
p22
(I4575440
I-1
ttp23
a(Vfuel_level_left_input
p24
(I4575441
I-1
ttp25
a(Vfuel_level_right_fb
p26
(I4575442
I-1
ttp27
a(Vfuel_level_right_input
p28
(I4575443
I-1
ttp29
a(Vhydraulic_tank_temp_fb
p30
(I4575444
I-1
ttp31
a(Vhydraulic_tank_temp_input
p32
(I4575445
I-1
ttp33
a(Vfuel_temp_left_fb
p34
(I4575446
I-1
ttp35
a(Vfuel_temp_left_input
p36
(I4575447
I-1
ttp37
a(Vfuel_temp_right_fb
p38
(I4575448
I-1
ttp39
a(Vfuel_temp_right_input
p40
(I4575449
I-1
ttp41
a(Vservice_brake_tank_1_val
p42
(I4575452
I-1
ttp43
a(Vservice_brake_tank_1_change
p44
(I4575456
I-1
ttp45
a(Vservice_brake_tank_2_val
p46
(I4575460
I-1
ttp47
a(Vservice_brake_tank_2_change
p48
(I4575464
I-1
ttp49
a(Vpark_brake_tank_val
p50
(I4575468
I-1
ttp51
a(Vpark_brake_tank_change
p52
(I4575472
I-1
ttp53
a(Vaccessory_tank_val
p54
(I4575476
I-1
ttp55
a(Vaccessory_tank_change
p56
(I4575480
I-1
ttp57
a(Vhydraulic_tank_pressure_val
p58
(I4575481
I-1
ttp59
a(Vhydraulic_tank_pressure_change
p60
(I4575482
I-1
ttp61
a(Vfuel_level_left_val
p62
(I4575483
I-1
ttp63
a(Vfuel_level_left_change
p64
(I4575484
I-1
ttp65
a(Vfuel_level_right_val
p66
(I4575485
I-1
ttp67
a(Vfuel_level_right_change
p68
(I4575486
I-1
ttp69
a(Vfuel_temp_left_val
p70
(I4575487
I-1
ttp71
a(Vfuel_temp_left_change
p72
(I4575488
I-1
ttp73
a(Vfuel_temp_right_val
p74
(I4575489
I-1
ttp75
a(Vfuel_temp_right_change
p76
(I4575490
I-1
ttp77
a(Vhydraulic_tank_temp_val
p78
(I4575491
I-1
ttp79
a(Vhydraulic_tank_temp_change
p80
(I4575492
I-1
ttp81
a(Vpage1_selected
p82
(I4575493
I-1
ttp83
a(Vpage2_selected
p84
(I4575494
I-1
ttp85
a(Vpage3_selected
p86
(I4575495
I-1
ttp87
a(Vpage_currentValue
p88
(I4575496
I-1
ttp89
a(Vdropbox_high_selected
p90
(I4575497
I-1
ttp91
a(Vdropbox_neutral_selected
p92
(I4575498
I-1
ttp93
a(Vdropbox_low_selected
p94
(I4575499
I-1
ttp95
a(Vpage2_currentValue
p96
(I4575500
I-1
ttp97
a(Vpage3_currentValue
p98
(I4575501
I-1
ttp99
a(Vpage4_currentValue
p100
(I4575502
I-1
ttp101
a(Vdropbox_low
p102
(I4575503
I-1
ttp103
a(Vdropbox_neutral
p104
(I4575504
I-1
ttp105
a(Vdropbox_high
p106
(I4575505
I-1
ttp107
a(Vdropbox_admin_touch
p108
(I4575506
I-1
ttp109
a(Vahmet
p110
(I4575507
I-1
ttp111
a(Vblink05
p112
(I4575508
I-1
ttp113
a(Vmain_timer
p114
(I4575512
I-1
ttp115
a(Vdifflock_mid_image
p116
(I4575516
I-1
ttp117
a(Vdifflock_rear_image
p118
(I4575517
I-1
ttp119
a(Vdifflock_front_image
p120
(I4575518
I-1
ttp121
a(Vdropbox_h_image
p122
(I4575519
I-1
ttp123
a(Vdropbox_l_image
p124
(I4575520
I-1
ttp125
a(Vdropbox_n_image
p126
(I4575521
I-1
ttp127
a(Valarm_icon_service_tank_1
p128
(I4575522
I-1
ttp129
a(Vinsufficient_pressure_service_tank_1
p130
(I4575523
I-1
ttp131
a(Valarm_icon_service_tank_2
p132
(I4575524
I-1
ttp133
a(Valarm_icon_park_tank
p134
(I4575525
I-1
ttp135
a(Valarm_icon_accessory_tank
p136
(I4575526
I-1
ttp137
a(Vinsufficient_pressure_service_tank_2
p138
(I4575527
I-1
ttp139
a(Vinsufficient_pressure_park_tank
p140
(I4575528
I-1
ttp141
a(Vinsufficient_pressure_accessory_tank
p142
(I4575529
I-1
ttp143
a.