(lp1
(VHTempLevel0_ANALOG_2
p2
(I-1
I-1
ttp3
a(VHTempLevel0_2
p4
(I-1
I-1
ttp5
a(VHTempLevel1_ANALOG_2
p6
(I-1
I-1
ttp7
a(VHTempLevel1_2
p8
(I-1
I-1
ttp9
a(VHTempLevel2_ANALOG_2
p10
(I-1
I-1
ttp11
a(VHTempLevel2_2
p12
(I-1
I-1
ttp13
a(VHTempLevel3_ANALOG_2
p14
(I-1
I-1
ttp15
a(VHTempLevel3_2
p16
(I-1
I-1
ttp17
a(VHTempLevel4_ANALOG_2
p18
(I-1
I-1
ttp19
a(VHTempLevel4_2
p20
(I-1
I-1
ttp21
a(VHTempLevel5_ANALOG_2
p22
(I-1
I-1
ttp23
a(VHTempLevel5_2
p24
(I-1
I-1
ttp25
a(VHTempLevel6_ANALOG_2
p26
(I-1
I-1
ttp27
a(VHTempLevel6_2
p28
(I-1
I-1
ttp29
a(VHTempLevel7_ANALOG_2
p30
(I-1
I-1
ttp31
a(VHTempLevel7_2
p32
(I-1
I-1
ttp33
a.