(lp1
(VStat_ExhaustBrake
p2
(I2105071
I-1
ttp3
a(VTimerExBrake
p4
(I2105072
I-1
ttp5
a(VTimerDeltaExBrake
p6
(I-1
I-1
ttp7
a(VCmd_ExBrake
p8
(I2105088
I-1
ttp9
a(VEngineBrakeSpeedLimit
p10
(I-1
I-1
ttp11
a(VCmd_EngineBrake
p12
(I2105089
I-1
ttp13
a(VStat_EngineBrake
p14
(I2105090
I-1
ttp15
a(VStat_EngineBrakeLED
p16
(I2105091
I-1
ttp17
a(Vtest_brake
p18
(L2131752L
I-1
ttp19
a.