(lp1
(VStat_ResistancesFront
p2
(I2102915
I-1
ttp3
a(VTimerDelta_ResistanceFront
p4
(L2131713L
I-1
ttp5
a(VTimerResistanceFront
p6
(I2102916
I-1
ttp7
a(VStat_ResistancesSide
p8
(I2102932
I-1
ttp9
a(VTimerDelta_ResistanceSide
p10
(L2131773L
I-1
ttp11
a(VTimerResistanceSide
p12
(I2102933
I-1
ttp13
a(VTriggerRes
p14
(I2102949
I-1
ttp15
a(VCmd_TriggerRes
p16
(I2102954
I-1
ttp17
a(VResistance_Limit
p18
(L2124228L
I-1
ttp19
a.