(lp1
(VWasherDelay
p2
(L2123766L
I-1
ttp3
a(VStat_Wiper
p4
(I2102754
I-1
ttp5
a(VStat_WiperOld
p6
(I2102755
I-1
ttp7
a(VStat_Washer
p8
(I2102756
I-1
ttp9
a(VWasherWiperTimer
p10
(I2102757
I-1
ttp11
a(VINT1_TP
p12
(I2102773
I-1
ttp13
a(VINT2_TP
p14
(I2102789
I-1
ttp15
a(VWiperMotorHighSpeed
p16
(L2123770L
I-1
ttp17
a(VWiperMotorLowSpeed
p18
(L2123772L
I-1
ttp19
a(VParkClose_TP
p20
(I2102805
I-1
ttp21
a(VCmd_WiperHigh
p22
(I2102821
I-1
ttp23
a(VCmd_WiperLow
p24
(I2102822
I-1
ttp25
a(VCmd_WiperIntermittent1
p26
(I2102823
I-1
ttp27
a(VCmd_WiperIntermittent2
p28
(I2102824
I-1
ttp29
a(VStat_Wiper_Intermittent1
p30
(I2102825
I-1
ttp31
a(VCmd_Wiper_Intermittent1_Ctr
p32
(I2102826
I-1
ttp33
a(VIsWiper1Stopped
p34
(I2102830
I-1
ttp35
a(VIsWiper2Stopped
p36
(I2102831
I-1
ttp37
a.