(lp1
(VLimit_EngineOilLevel
p2
(L2123847L
I-1
ttp3
a(VLimit_EngineOilPressure
p4
(L2123848L
I-1
ttp5
a(VLimit_EngineOilTemperature
p6
(L2123849L
I-1
ttp7
a(VLimit_TransmissionOilTemperature
p8
(L2123850L
I-1
ttp9
a(VLimit_FuelLevelLow
p10
(L2123851L
I-1
ttp11
a(VLimit_AccessoryPressureLevel
p12
(L2123852L
I-1
ttp13
a(VLimit_ParkBrakePressureLevel
p14
(L2123853L
I-1
ttp15
a(VLimit_ServiceBrake1PressureLevel
p16
(L2123854L
I-1
ttp17
a(VLimit_ServiceBrake2PressureLevel
p18
(L2123855L
I-1
ttp19
a(VLimit_HydrolicTankPressure
p20
(L2124072L
I-1
ttp21
a(VLimit_HydrolicTankTemp
p22
(L2124073L
I-1
ttp23
a(VLimit_WeaterColdTemp
p24
(L2124074L
I-1
ttp25
a(VLimit_AccessoryPressureLevelDropBox
p26
(L2123763L
I-1
ttp27
a(VFormat_BB
p28
(I2102691
I-1
ttp29
a(VMC2M_Formatted
p30
(L2131751L
I-1
ttp31
a(VTotalOdometer_d
p32
(L2129013L
I-1
ttp33
a.