(lp1
(VTCM_dataMatrix
p2
(I2099696
I-1
ttp3
a(VTCM_offsetDataTabelV
p4
(I2100896
I-1
ttp5
a(VTCM_offsetDataTabelH
p6
(I2100898
I-1
ttp7
a(VTCM_Table_RED_Lamp
p8
(I2100900
I-1
ttp9
a(VTCM_Table_AMBER_Lamp
p10
(I2100901
I-1
ttp11
a.