(lp1
(VPresLevel0_ANALOG
p2
(L2124020L
I-1
ttp3
a(VPresLevel0
p4
(L2124022L
I-1
ttp5
a(VPresLevel1_ANALOG
p6
(L2124024L
I-1
ttp7
a(VPresLevel1
p8
(L2124026L
I-1
ttp9
a(VPresLevel2_ANALOG
p10
(L2124028L
I-1
ttp11
a(VPresLevel2
p12
(L2124030L
I-1
ttp13
a(VPresLevel3_ANALOG
p14
(L2131949L
I-1
ttp15
a(VPresLevel3
p16
(L2131951L
I-1
ttp17
a(VPresLevel4_ANALOG
p18
(L2131953L
I-1
ttp19
a(VPresLevel4
p20
(L2131955L
I-1
ttp21
a.