(lp1
(VStat_DiffLock
p2
(I2103007
I-1
ttp3
a(VCmd_Dropbox_4WD_Off
p4
(I2103008
I-1
ttp5
a(VStat_DiffLock44
p6
(I2103009
I-1
ttp7
a(VCmd_RearAxleDiffLock
p8
(I2103010
I-1
ttp9
a(VCmd_FrontAxleDiffLock
p10
(I2103011
I-1
ttp11
a(VStat_4x4
p12
(I2103012
I-1
ttp13
a(VStat_Dropbox_4WD_Off
p14
(I2103013
I-1
ttp15
a(VStat_RearAxleDiffLock
p16
(I2103014
I-1
ttp17
a(VStat_FrontAxleDiffLock
p18
(I2103015
I-1
ttp19
a(VCmd_4x4_Buzzer
p20
(I2103016
I-1
ttp21
a(VDifflockFeedbackState
p22
(L2128913L
I-1
ttp23
a(VDifflockDoutState
p24
(L2128914L
I-1
ttp25
a(VTest_Dropbox_4WD_Off
p26
(L2131747L
I-1
ttp27
a(VTest_RearAxleDiffLock
p28
(L2131748L
I-1
ttp29
a(VTest_FrontAxleDiffLock
p30
(L2131749L
I-1
ttp31
a.