(lp1
(VSpeedometerGaugeValue_0
p2
(L2124262L
I-1
ttp3
a(VSpeedometerGaugeValue_1
p4
(L2124272L
I-1
ttp5
a(VSpeedometerGaugeValue_2
p6
(L2124274L
I-1
ttp7
a(VSpeedometerGaugeValue_3
p8
(L2124276L
I-1
ttp9
a(VSpeedometerGaugeValue_4
p10
(I-1
I-1
ttp11
a(VSpeedometerGaugeValue_5
p12
(I-1
I-1
ttp13
a(VSpeedometerGaugeValue_6
p14
(I-1
I-1
ttp15
a(VSpeedometerGaugeValue_7
p16
(I-1
I-1
ttp17
a(VSpeedometerGaugeValue_8
p18
(I-1
I-1
ttp19
a(VSpeedometerGaugeValue_9
p20
(I-1
I-1
ttp21
a(VSpeedometerGaugeValue_10
p22
(I-1
I-1
ttp23
a(VSpeedometerGaugeValue_11
p24
(I-1
I-1
ttp25
a(VSpeedometerGaugeValue_12
p26
(I-1
I-1
ttp27
a.