(lp1
(VAverageQuantityEngineTempGauge
p2
(I-1
I-1
ttp3
a(VEngineTempGaugeInputFiltered
p4
(L1458492L
I-1
ttp5
a(VTotalEngineTempGaugeInput
p6
(L1460692L
I-1
ttp7
a(VEngineTempGaugeInputArray
p8
(L1460696L
I-1
ttp9
a(VEngineTempGauge
p10
(L1458494L
I-1
ttp11
a.