(lp1
(VHTempAverageQuantity
p2
(L2124019L
I-1
ttp3
a(VHTempInputFiltered
p4
(L2129355L
I-1
ttp5
a(VHTempTotalInput
p6
(L2129361L
I-1
ttp7
a(VHTempInputArray
p8
(L2131477L
I-1
ttp9
a(VHTempLevel_Normalized
p10
(L2129365L
I-1
ttp11
a.