(lp1
(VMC2M_GIGA_ServiceBrake1
p2
(L1461943L
I-1
ttp3
a(VMC2M_GIGA_ServiceBrake2
p4
(L1461944L
I-1
ttp5
a(VMC2M_GIGA_ParkingBrakePressure
p6
(L1461945L
I-1
ttp7
a(VMC2M_GIGA_AccessoryPressure
p8
(L1461962L
I-1
ttp9
a(Vtest
p10
(I1333642
I-1
ttp11
a(VhydraulicPressureTimer
p12
(I1333643
I-1
ttp13
a(Vbuzzertimer
p14
(I1333644
I-1
ttp15
a.