(lp1
(VLampAlarmDelay
p2
(I-1
I-1
ttp3
a(VGlobalSPN
p4
(L2129081L
I-1
ttp5
a(VGlobalFMI
p6
(L2129075L
I-1
ttp7
a(VEngineOFF
p8
(L2129076L
I-1
ttp9
a(VAlarmState_Battery
p10
(L2129421L
I-1
ttp11
a(VAlarmState_TransOilTemperature
p12
(L2129422L
I-1
ttp13
a(VAlarmState_BrakeIndicator
p14
(L2129423L
I-1
ttp15
a(VAlarmState_EngineOilLevel
p16
(L2129424L
I-1
ttp17
a(VAlarmState_Alternator
p18
(L2129425L
I-1
ttp19
a(VAlarmState_ECM_RedLamp
p20
(L2129426L
I-1
ttp21
a(VAlarmState_ECM_AmberLamp
p22
(L2129427L
I-1
ttp23
a(VAlarmState_AirFilterClogged
p24
(L2129428L
I-1
ttp25
a(VAlarmState_DoorOpen_1
p26
(L2129429L
I-1
ttp27
a(VAlarmState_DoorOpen_2
p28
(L2129371L
I-1
ttp29
a(VAlarmState_DoorOpen_3
p30
(L2129372L
I-1
ttp31
a(VAlarmState_DoorOpen_4
p32
(L2129373L
I-1
ttp33
a(VAlarmState_DoorOpen_5
p34
(L2129374L
I-1
ttp35
a(VAlarmState_CheckTransmission
p36
(L2129430L
I-1
ttp37
a(VAlarmState_SumpTemp
p38
(L2129431L
I-1
ttp39
a(VAlarmState_EngineOilPressure
p40
(L2129432L
I-1
ttp41
a(VAlarmState_EngineOilTemperature
p42
(L2129433L
I-1
ttp43
a(VAlarmState_FuelLevelLow
p44
(L2129434L
I-1
ttp45
a(VAlarmState_FuelLevelLow_T1
p46
(L2128938L
I-1
ttp47
a(VAlarmState_FuelLevelLow_T2
p48
(L2128939L
I-1
ttp49
a(VAlarmState_AccessoryPressure
p50
(L2129435L
I-1
ttp51
a(VAlarmState_ServiceBrake1Pressure
p52
(L2129436L
I-1
ttp53
a(VAlarmState_ServiceBrake2Pressure
p54
(L2129437L
I-1
ttp55
a(VAlarmState_ParkBrakePressure
p56
(L2129438L
I-1
ttp57
a(VAlarmState_EngineCoolantLevelLow
p58
(L2129439L
I-1
ttp59
a(VAlarmState_DirectionHyraulicLevel
p60
(L2129440L
I-1
ttp61
a(VAlarmState_BrakeLiningWear
p62
(L2129441L
I-1
ttp63
a(VAlarmState_SteeringWheelRepPump
p64
(L2129053L
I-1
ttp65
a(VAlarmState_OilFilterDirty_1
p66
(L2129366L
I-1
ttp67
a(VAlarmState_OilFilterDirty_2
p68
(L2129367L
I-1
ttp69
a(VAlarmState_HydrolicTankPressure
p70
(L2129368L
I-1
ttp71
a(VAlarmState_HydrolicTankTemp
p72
(L2129369L
I-1
ttp73
a(VAlarmState_WeatherCold
p74
(L2129370L
I-1
ttp75
a(VLampAlarm_L01_TON
p76
(L2129445L
I-1
ttp77
a(VLampAlarm_L02_TON
p78
(L2129461L
I-1
ttp79
a(VLampAlarm_L03_TON
p80
(L2129477L
I-1
ttp81
a(VLampAlarm_L04_TON
p82
(L2129493L
I-1
ttp83
a(VLampAlarm_L05_TON
p84
(L2129509L
I-1
ttp85
a(VLampAlarm_L06_TON
p86
(L2129525L
I-1
ttp87
a(VLampAlarm_L07_TON
p88
(L2129541L
I-1
ttp89
a(VLampAlarm_L08_TON
p90
(L2129557L
I-1
ttp91
a(VLampAlarm_L09_TON
p92
(L2129573L
I-1
ttp93
a(VLampAlarm_L10_TON
p94
(L2129589L
I-1
ttp95
a(VLampAlarm_L11_TON
p96
(L2129605L
I-1
ttp97
a(VLampAlarm_L12_TON
p98
(L2129621L
I-1
ttp99
a(VLampAlarm_L13_TON
p100
(L2129637L
I-1
ttp101
a(VLampAlarm_L14_TON
p102
(L2129653L
I-1
ttp103
a(VLampAlarm_L15_TON
p104
(L2129669L
I-1
ttp105
a(VLampAlarm_L16_TON
p106
(L2129685L
I-1
ttp107
a(VLampAlarm_L17_TON
p108
(L2129701L
I-1
ttp109
a(VLampAlarm_L18_TON
p110
(L2129717L
I-1
ttp111
a(VLampAlarm_L19_TON
p112
(L2129733L
I-1
ttp113
a(VLampAlarm_L20_TON
p114
(L2129749L
I-1
ttp115
a(VLampAlarm_L21_TON
p116
(L2129765L
I-1
ttp117
a(VLampAlarm_L22_TON
p118
(L2129781L
I-1
ttp119
a(VLampAlarm_L23_TON
p120
(L2129797L
I-1
ttp121
a(VLampAlarm_L24_TON
p122
(L2129813L
I-1
ttp123
a(VLampAlarm_L25_TON
p124
(L2129829L
I-1
ttp125
a(VLampAlarm_L26_TON
p126
(L2129845L
I-1
ttp127
a(VLampAlarm_L27_TON
p128
(L2129861L
I-1
ttp129
a.