(lp1
(VTemLevel0_ANALOG
p2
(L2123205L
I-1
ttp3
a(VTemLevel0
p4
(L2123207L
I-1
ttp5
a(VTemLevel1_ANALOG
p6
(L2123209L
I-1
ttp7
a(VTemLevel1
p8
(L2123211L
I-1
ttp9
a(VTemLevel2_ANALOG
p10
(L2123225L
I-1
ttp11
a(VTemLevel2
p12
(L2123227L
I-1
ttp13
a(VTemLevel3_ANALOG
p14
(L2123257L
I-1
ttp15
a(VTemLevel3
p16
(L2123279L
I-1
ttp17
a(VTemLevel4_ANALOG
p18
(L2123291L
I-1
ttp19
a(VTemLevel4
p20
(L2123293L
I-1
ttp21
a(VTemLevel5_ANALOG
p22
(L2123295L
I-1
ttp23
a(VTemLevel5
p24
(L2123297L
I-1
ttp25
a(VTemLevel6_ANALOG
p26
(L2123299L
I-1
ttp27
a(VTemLevel6
p28
(L2123301L
I-1
ttp29
a(VTemLevel7_ANALOG
p30
(L2123303L
I-1
ttp31
a(VTemLevel7
p32
(L2123313L
I-1
ttp33
a(VTemLevel8_ANALOG
p34
(L2123315L
I-1
ttp35
a(VTemLevel8
p36
(L2123317L
I-1
ttp37
a(VTemLevel9_ANALOG
p38
(L2123319L
I-1
ttp39
a(VTemLevel9
p40
(L2123321L
I-1
ttp41
a(VTemLevel10_ANALOG
p42
(L2123323L
I-1
ttp43
a(VTemLevel10
p44
(L2123325L
I-1
ttp45
a(VTemLevel11_ANALOG
p46
(L2123327L
I-1
ttp47
a(VTemLevel11
p48
(L2123329L
I-1
ttp49
a(VTemLevel12_ANALOG
p50
(L2123331L
I-1
ttp51
a(VTemLevel12
p52
(L2123333L
I-1
ttp53
a.