(lp1
(VAverageQuantityTransOilTemperature
p2
(I-1
I-1
ttp3
a(VTransOilTemperatureInputFiltered
p4
(L1458506L
I-1
ttp5
a(VTotalTransOilTemperatureInput
p6
(L1460896L
I-1
ttp7
a(VTransOilTemperatureInputArray
p8
(L1460900L
I-1
ttp9
a(VTransOilTemperature
p10
(L1461100L
I-1
ttp11
a.