(lp1
(VAVGUANTITYTEMP_FUELT_L
p2
(I-1
I-1
ttp3
a(VTempInputFiltered_FuelT_L
p4
(I2105196
I-1
ttp5
a(VTotalTempInput_FuelT_L
p6
(I2105198
I-1
ttp7
a(VTempInputArray_FuelT_L
p8
(I2105202
I-1
ttp9
a(VTempLevel_Normalized_FuelT_L
p10
(I2105402
I-1
ttp11
a(VTEMPLEVEL0_FUELT_L
p12
(I-1
I-1
ttp13
a(VTEMPLEVEL1_FUELT_L
p14
(I-1
I-1
ttp15
a(VTEMPLEVEL0_ANALOG_FUELT_L
p16
(I-1
I-1
ttp17
a(VTEMPLEVEL1_ANALOG_FUELT_L
p18
(I-1
I-1
ttp19
a.