(lp1
(VFUELLEVEL0_R
p2
(I-1
I-1
ttp3
a(VFUELLEVEL1_R
p4
(I-1
I-1
ttp5
a(VFUELLEVEL2_R
p6
(I-1
I-1
ttp7
a(VFUELLEVEL3_R
p8
(I-1
I-1
ttp9
a(VFUELLEVEL4_R
p10
(I-1
I-1
ttp11
a(VFUELLEVEL0_ANALOG_R
p12
(I-1
I-1
ttp13
a(VFUELLEVEL1_ANALOG_R
p14
(I-1
I-1
ttp15
a(VFUELLEVEL2_ANALOG_R
p16
(I-1
I-1
ttp17
a(VFUELLEVEL3_ANALOG_R
p18
(I-1
I-1
ttp19
a(VFUELLEVEL4_ANALOG_R
p20
(I-1
I-1
ttp21
a(VAVGQUANTITYFUEL_R
p22
(I-1
I-1
ttp23
a(VFuelInputFiltered_R
p24
(I2104243
I-1
ttp25
a(VTotalFuelInput_R
p26
(I2104245
I-1
ttp27
a(VFuelInputArray_R
p28
(I2104249
I-1
ttp29
a(VFuelLevel_Normalized_R
p30
(I2104449
I-1
ttp31
a(VFuelLevel_Normalized2_R
p32
(I2104450
I-1
ttp33
a(VTotalFuelInput2_R
p34
(I2104451
I-1
ttp35
a(VAVGQUANTITYFUEL2_R
p36
(I-1
I-1
ttp37
a(VFuelInputArray2_R
p38
(I2104455
I-1
ttp39
a.