(lp1
(Vdlc
p2
(I-1
I2
ttp3
a(Vdata
p4
(I-1
I4
ttp5
a(VDTC_COUNT
p6
(I-1
I7
ttp7
a(Vi
(I-1
I-1
ttp8
a(Vn
(I-1
I-1
ttp9
a(VSPN
p10
(I-1
I9
ttp11
a(VFMI
p12
(I-1
I13
ttp13
a(VCM
p14
(I-1
I14
ttp15
a(VOC
p16
(I-1
I16
ttp17
a(VProtectLamp
p18
(I-1
I17
ttp19
a(VAmberWarningLamp
p20
(I-1
I19
ttp21
a(VRedStopLamp
p22
(I-1
I21
ttp23
a(VMalfunctionIndicatorLamp
p24
(I-1
I23
ttp25
a(VFlashProtectLamp
p26
(I-1
I25
ttp27
a(VFlashAmberWarningLamp
p28
(I-1
I27
ttp29
a(VFlashRedStopLamp
p30
(I-1
I29
ttp31
a(VFlashMalfunctionIndicatorLamp
p32
(I-1
I31
ttp33
a(VMultiFaultCounter
p34
(I-1
I33
ttp35
a.