(lp1
(Vstat_winch_Up_RS
p2
(I2103054
I-1
ttp3
a(Vstat_winch_Down_RS
p4
(I2103055
I-1
ttp5
a(Vstat_winch_Up_RC
p6
(I2103056
I-1
ttp7
a(Vstat_winch_Down_RC
p8
(I2103057
I-1
ttp9
a(Vstat_endOfRope
p10
(I2103058
I-1
ttp11
a(Vstat_winch_clutch_RC
p12
(I2103059
I-1
ttp13
a(Vstat_winch_clutch_RS
p14
(I2103060
I-1
ttp15
a.