(lp1
(VBlink07
p2
(L2129055L
I-1
ttp3
a(VBlink06
p4
(L2129056L
I-1
ttp5
a(VBlink05
p6
(L2129057L
I-1
ttp7
a(VBlink10
p8
(L2129058L
I-1
ttp9
a(VSaveParameter
p10
(L2129059L
I-1
ttp11
a(VSWVersion
p12
(L2129060L
I-1
ttp13
a(VSignalLoop
p14
(L2129417L
I-1
ttp15
a(VMainLoop
p16
(L2129061L
I-1
ttp17
a(VDateTimeNow
p18
(L2129065L
I-1
ttp19
a(VDateTimeUpdate
p20
(L2129085L
I-1
ttp21
a(VSetDateTime
p22
(L2129073L
I-1
ttp23
a(VTotalMinute
p24
(L2133677L
I-1
ttp25
a(VTotalHour
p26
(L2133681L
I-1
ttp27
a(VoutSideTemperature
p28
(L2129074L
I-1
ttp29
a(VinSideTemperature
p30
(L2129077L
I-1
ttp31
a(VDropboxDifflockAlarm
p32
(I2097386
I-1
ttp33
a(VKilometreBilgisi_Degiskeni
p34
(I2097387
I-1
ttp35
a(VDiger_Degisken_1
p36
(I2097389
I-1
ttp37
a(VDiger_Degisken_2
p38
(I2097391
I-1
ttp39
a(VTimeNow
p40
(I2097393
I-1
ttp41
a.