(lp1
(VCmd_winch_Up_RS
p2
(I2103047
I-1
ttp3
a(VCmd_winch_Down_RS
p4
(I2103048
I-1
ttp5
a(VCmd_winch_Up_RC
p6
(I2103049
I-1
ttp7
a(VCmd_winch_Down_RC
p8
(I2103050
I-1
ttp9
a(VCmd_endOfRope
p10
(I2103051
I-1
ttp11
a(VCmd_winch_clutch_RC
p12
(I2103052
I-1
ttp13
a(VCmd_winch_clutch_RS
p14
(I2103053
I-1
ttp15
a.