(lp1
(VEngineTempGaugeValue_Min
p2
(I-1
I-1
ttp3
a(VEngineTempGaugeValue_Mid
p4
(I-1
I-1
ttp5
a(VEngineTempGaugeValue_Max
p6
(I-1
I-1
ttp7
a(VEngineTempGaugeValue_1
p8
(I-1
I-1
ttp9
a(VEngineTempGaugeValue_2
p10
(I-1
I-1
ttp11
a(VEngineTempGaugeValue_3
p12
(I-1
I-1
ttp13
a(VEngineTempGaugeValue_4
p14
(I-1
I-1
ttp15
a(VEngineTempGaugeValue_5
p16
(I-1
I-1
ttp17
a.