(lp1
(VCmd_HighBeam
p2
(I2102700
I-1
ttp3
a(VCmd_HighBeamFlash
p4
(I2102701
I-1
ttp5
a(VCmd_LowBeam
p6
(I2102702
I-1
ttp7
a(VCmd_ParkLamp
p8
(I2102703
I-1
ttp9
a(VCmd_TurnSignal_Left
p10
(I2102704
I-1
ttp11
a(VCmd_TurnSignal_Right
p12
(I2102705
I-1
ttp13
a(VCmd_RearFog
p14
(I2102706
I-1
ttp15
a(VCmd_ReverseGear
p16
(I2102707
I-1
ttp17
a(VCmd_FrontFog
p18
(I2102708
I-1
ttp19
a(VCmd_WorkLamp_Rear
p20
(I2102709
I-1
ttp21
a(VCmd_StopLamp
p22
(I2102710
I-1
ttp23
a(VCmd_PuddleLamp
p24
(I2102711
I-1
ttp25
a(VCmd_Hazard
p26
(I2102712
I-1
ttp27
a(VCmd_InteriorLamp_Front
p28
(I2102713
I-1
ttp29
a(VCmd_InteriorLamp_Back
p30
(I2102714
I-1
ttp31
a(VCmd_FootBrakeMicro
p32
(I2102715
I-1
ttp33
a(VStat_TurnSignal_Ctr1
p34
(I2102716
I-1
ttp35
a(VStat_TurnSignal_Ctr2
p36
(I2102720
I-1
ttp37
a(VTriggerTurnLeftSignal
p38
(I2102724
I-1
ttp39
a(VTriggerTurnRightSignal
p40
(I2102729
I-1
ttp41
a.