(lp1
(VAverageQuantityPres
p2
(L2131679L
I-1
ttp3
a(VInputFilteredPres
p4
(L2129353L
I-1
ttp5
a(VTotalPresInput
p6
(L2129357L
I-1
ttp7
a(VPresInputArray
p8
(L2131277L
I-1
ttp9
a(VPresLevel_Normalized
p10
(L2129344L
I-1
ttp11
a.