(lp1
(VCmd_interiorVentilation_1
p2
(I2103097
I-1
ttp3
a(VCmd_interiorVentilation_2
p4
(I2103098
I-1
ttp5
a(VCmd_FireFighter
p6
(I2103099
I-1
ttp7
a(VCmd_Horn
p8
(I2103100
I-1
ttp9
a(VCmd_AlternatorFailure
p10
(I2103101
I-1
ttp11
a(VCmd_CentralLockSystemEnable
p12
(I2103102
I-1
ttp13
a(VCmd_CentralLockSystemDisable
p14
(I2103103
I-1
ttp15
a(VCmd_MineLock
p16
(I2103104
I-1
ttp17
a(VCmd_InterBuzzer
p18
(I2103105
I-1
ttp19
a(VCmd_CentralLockSystem
p20
(I2103106
I-1
ttp21
a(VTotalTripMeter
p22
(L2133685L
I-1
ttp23
a(VTotalTripMeter2
p24
(L2133689L
I-1
ttp25
a(VTotalOdometer
p26
(L2133693L
I-1
ttp27
a(VTotalOdometer2
p28
(L2133697L
I-1
ttp29
a(VTotalOdometer1km
p30
(L2133729L
I-1
ttp31
a(VTotalOdometer100m
p32
(L2133733L
I-1
ttp33
a(VTotalTripMeterX
p34
(L2133701L
I-1
ttp35
a(VResetTrp
p36
(L2131750L
I-1
ttp37
a(VTotalTripMeter5
p38
(L2133705L
I-1
ttp39
a(VTotalTripMeter6
p40
(L2133709L
I-1
ttp41
a(VTotalTripMeter7
p42
(L2133713L
I-1
ttp43
a(VTotalTripMeter8
p44
(L2133717L
I-1
ttp45
a(VTotalTripMeter9
p46
(L2133721L
I-1
ttp47
a(VTotalTripMeter10
p48
(L2133725L
I-1
ttp49
a(Vtmp_t50_res
p50
(L2128930L
I-1
ttp51
a(Vtmp_fuel_t50
p52
(L2128931L
I-1
ttp53
a(VTotal_Odometer_Low
p54
(L2129009L
I-1
ttp55
a(VTotal_Odometer_High
p56
(L2129011L
I-1
ttp57
a(VWorkState_WebastoTankTemperature
p58
(L2128932L
I-1
ttp59
a(VOdometer
p60
(L2129017L
I-1
ttp61
a.