(lp1
(VStat_HighBeam
p2
(I2102734
I-1
ttp3
a(VStat_LowBeam
p4
(I2102735
I-1
ttp5
a(VStat_TurnSignalLamp_Left
p6
(I2102736
I-1
ttp7
a(VStat_TurnSignalLamp_Right
p8
(I2102737
I-1
ttp9
a(VStat_RearFogLamp
p10
(I2102738
I-1
ttp11
a(VStat_ReverseGearLamp
p12
(I2102739
I-1
ttp13
a(VStat_BackupAlarm
p14
(I2102740
I-1
ttp15
a(VStat_FrontFog
p16
(I2102741
I-1
ttp17
a(VStat_WorkLamp_Rear
p18
(I2102742
I-1
ttp19
a(VStat_StopLamp
p20
(I2102743
I-1
ttp21
a(VStat_ParkLamp
p22
(I2102744
I-1
ttp23
a(VStat_SideLamp
p24
(I2102745
I-1
ttp25
a(VStat_PuddleLamp
p26
(I2102746
I-1
ttp27
a(VStat_Hazard
p28
(I2102747
I-1
ttp29
a(VStat_InteriorLamp_Front
p30
(I2102748
I-1
ttp31
a(VStat_InteriorLamp_Back
p32
(I2102749
I-1
ttp33
a(VStat_StopLamps
p34
(I2102750
I-1
ttp35
a(VStat_GIGA_Busy
p36
(I2102751
I-1
ttp37
a.