(lp1
(VTCM_MoreThanOneActiveFault
p2
(I2099186
I-1
ttp3
a(VTCM_starting
p4
(I2099187
I-1
ttp5
a(VTCM_dtcSpnEngine
p6
(I2099188
I-1
ttp7
a(VTCM_dtcFmiEngine
p8
(I2099592
I-1
ttp9
a(VTCM_led_AWL_Engine
p10
(I2099693
I-1
ttp11
a(VTCM_led_RSL_Engine
p12
(I2099694
I-1
ttp13
a(VTCM_led_RPL_Engine
p14
(I2099695
I-1
ttp15
a.