(lp1
(VAverageQuantityEngineOilPressure
p2
(I-1
I-1
ttp3
a(VEngineOilPressureInputFiltered
p4
(L1458214L
I-1
ttp5
a(VTotalEngineOilPressureInput
p6
(L1458268L
I-1
ttp7
a(VEngineOilPressureInputArray
p8
(L1458272L
I-1
ttp9
a(VEngineOilPressure
p10
(L1458242L
I-1
ttp11
a.