(lp1
(VAverageQuantityTem
p2
(L2124243L
I-1
ttp3
a(VTemInputFiltered
p4
(I2103181
I-1
ttp5
a(VTotalTemInput
p6
(I2103183
I-1
ttp7
a(VTemInputArray
p8
(I2103187
I-1
ttp9
a(VTemLevelNormalized
p10
(I2103427
I-1
ttp11
a(VAverageQuantityTem_23
p12
(L2124254L
I-1
ttp13
a(VTemInputFiltered_23
p14
(I2103429
I-1
ttp15
a(VTotalTemInput_23
p16
(I2103431
I-1
ttp17
a(VTemInputArray_23
p18
(I2103435
I-1
ttp19
a(VTemLevelNormalized_23
p20
(I2103675
I-1
ttp21
a.