(lp1
(VTemLevel0_ANALOG_2
p2
(L2123313L
I-1
ttp3
a(VTemLevel0_2
p4
(L2123315L
I-1
ttp5
a(VTemLevel1_ANALOG_2
p6
(L2123317L
I-1
ttp7
a(VTemLevel1_2
p8
(L2123319L
I-1
ttp9
a(VTemLevel2_ANALOG_2
p10
(L2123321L
I-1
ttp11
a(VTemLevel2_2
p12
(L2123323L
I-1
ttp13
a(VTemLevel3_ANALOG_2
p14
(L2123325L
I-1
ttp15
a(VTemLevel3_2
p16
(L2123327L
I-1
ttp17
a(VTemLevel4_ANALOG_2
p18
(L2123329L
I-1
ttp19
a(VTemLevel4_2
p20
(L2123331L
I-1
ttp21
a(VTemLevel5_ANALOG_2
p22
(L2123333L
I-1
ttp23
a(VTemLevel5_2
p24
(L2123335L
I-1
ttp25
a(VTemLevel6_ANALOG_2
p26
(L2123337L
I-1
ttp27
a(VTemLevel6_2
p28
(L2123339L
I-1
ttp29
a(VTemLevel7_ANALOG_2
p30
(L2123537L
I-1
ttp31
a(VTemLevel7_2
p32
(L2123539L
I-1
ttp33
a(VTemLevel8_ANALOG_2
p34
(L2123541L
I-1
ttp35
a(VTemLevel8_2
p36
(L2123543L
I-1
ttp37
a(VTemLevel9_ANALOG_2
p38
(L2123545L
I-1
ttp39
a(VTemLevel9_2
p40
(L2123547L
I-1
ttp41
a(VTemLevel10_ANALOG_2
p42
(L2123549L
I-1
ttp43
a(VTemLevel10_2
p44
(L2123551L
I-1
ttp45
a(VTemLevel11_ANALOG_2
p46
(L2123553L
I-1
ttp47
a(VTemLevel11_2
p48
(L2123555L
I-1
ttp49
a(VTemLevel12_ANALOG_2
p50
(L2123557L
I-1
ttp51
a(VTemLevel12_2
p52
(L2123559L
I-1
ttp53
a(VTemLevel13_ANALOG_2
p54
(L2132053L
I-1
ttp55
a(VTemLevel13_2
p56
(L2132055L
I-1
ttp57
a(VTemLevel14_ANALOG_2
p58
(L2132057L
I-1
ttp59
a(VTemLevel14_2
p60
(L2132059L
I-1
ttp61
a(VTemLevel15_ANALOG_2
p62
(L2132061L
I-1
ttp63
a(VTemLevel15_2
p64
(L2132063L
I-1
ttp65
a(VTemLevel16_ANALOG_2
p66
(L2132065L
I-1
ttp67
a(VTemLevel16_2
p68
(L2132067L
I-1
ttp69
a(VTemLevel17_ANALOG_2
p70
(L2132069L
I-1
ttp71
a(VTemLevel17_2
p72
(L2132071L
I-1
ttp73
a(VTemLevel18_ANALOG_2
p74
(L2132073L
I-1
ttp75
a(VTemLevel18_2
p76
(L2132075L
I-1
ttp77
a(VTemLevel19_ANALOG_2
p78
(L2132077L
I-1
ttp79
a(VTemLevel19_2
p80
(L2132079L
I-1
ttp81
a(VTemLevel20_ANALOG_2
p82
(L2132081L
I-1
ttp83
a(VTemLevel20_2
p84
(L2132083L
I-1
ttp85
a(VTemLevel21_ANALOG_2
p86
(L2132085L
I-1
ttp87
a(VTemLevel21_2
p88
(L2132087L
I-1
ttp89
a(VTemLevel22_ANALOG_2
p90
(L2132089L
I-1
ttp91
a(VTemLevel22_2
p92
(L2132091L
I-1
ttp93
a(VTemLevel23_ANALOG_2
p94
(L2132093L
I-1
ttp95
a(VTemLevel23_2
p96
(L2132095L
I-1
ttp97
a(VTemLevel24_ANALOG_2
p98
(L2132097L
I-1
ttp99
a(VTemLevel24_2
p100
(L2132099L
I-1
ttp101
a(VTemLevel25_ANALOG_2
p102
(L2132101L
I-1
ttp103
a(VTemLevel25_2
p104
(L2132103L
I-1
ttp105
a(VTemLevel26_ANALOG_2
p106
(L2132105L
I-1
ttp107
a(VTemLevel26_2
p108
(L2132107L
I-1
ttp109
a(VTemLevel27_ANALOG_2
p110
(L2132109L
I-1
ttp111
a(VTemLevel27_2
p112
(L2132111L
I-1
ttp113
a(VTemLevel28_ANALOG_2
p114
(L2132113L
I-1
ttp115
a(VTemLevel28_2
p116
(L2132115L
I-1
ttp117
a(VTemLevel29_ANALOG_2
p118
(L2132117L
I-1
ttp119
a(VTemLevel29_2
p120
(L2132119L
I-1
ttp121
a(VTemLevel30_ANALOG_2
p122
(L2132121L
I-1
ttp123
a(VTemLevel30_2
p124
(L2132123L
I-1
ttp125
a(VTemLevel31_ANALOG_2
p126
(L2132125L
I-1
ttp127
a(VTemLevel31_2
p128
(L2132127L
I-1
ttp129
a(VTemLevel32_ANALOG_2
p130
(L2132129L
I-1
ttp131
a(VTemLevel32_2
p132
(L2132131L
I-1
ttp133
a.