(lp1
(VAverageQuantityFuelLevel
p2
(I-1
I-1
ttp3
a(VFuelLevelInputFiltered
p4
(L1458266L
I-1
ttp5
a(VTotalFuelLevelInput
p6
(L1458480L
I-1
ttp7
a(VFuelLevelInputArray
p8
(L1460292L
I-1
ttp9
a(VFuelLevel
p10
(L1458478L
I-1
ttp11
a.