(lp1
(VStat_Dropbox
p2
(I2102842
I-1
ttp3
a(VCmd_Dropbox_High
p4
(I2102843
I-1
ttp5
a(VCmd_Dropbox_Low
p6
(I2102844
I-1
ttp7
a(VCmd_Dropbox_Neutral
p8
(I2102845
I-1
ttp9
a(VStat_Dropbox_High
p10
(I2102846
I-1
ttp11
a(VStat_Dropbox_Low
p12
(I2102847
I-1
ttp13
a(VStat_Dropbox_Neutral
p14
(I2102848
I-1
ttp15
a(VDropbox_High_TP
p16
(I2102849
I-1
ttp17
a(VDropbox_Low_TP
p18
(I2102865
I-1
ttp19
a(VDropbox_Neutral_TP
p20
(I2102881
I-1
ttp21
a(VDropboxPulseDelay
p22
(L2131741L
I-1
ttp23
a(VDropbox_Pulse_TP
p24
(I2102897
I-1
ttp25
a(VDropboxFeedbackState
p26
(L2128907L
I-1
ttp27
a(VDropboxDoutState
p28
(L2128908L
I-1
ttp29
a(VFeedback_DropboxHigh_R_TRIG
p30
(L2128917L
I-1
ttp31
a(VFeedback_DropboxLow_R_TRIG
p32
(L2128925L
I-1
ttp33
a(VFeedback_FrontAxle_R_TRIG
p34
(L2128933L
I-1
ttp35
a(VFeedback_RearAxle_R_TRIG
p36
(L2128941L
I-1
ttp37
a(VFeedback_4WD_DiffLock_R_TRIG
p38
(L2128949L
I-1
ttp39
a(VFeedback_DropboxHigh_F_TRIG
p40
(L2128957L
I-1
ttp41
a(VFeedback_DropboxLow_F_TRIG
p42
(L2128965L
I-1
ttp43
a(VFeedback_FrontAxle_F_TRIG
p44
(L2128973L
I-1
ttp45
a(VFeedback_RearAxle_F_TRIG
p46
(L2128981L
I-1
ttp47
a(VFeedback_4WD_DiffLock_F_TRIG
p48
(L2128989L
I-1
ttp49
a(VStat_WarningL2H
p50
(L2128915L
I-1
ttp51
a(VStat_WarningH2L
p52
(L2128916L
I-1
ttp53
a(VTest_High
p54
(L2131678L
I-1
ttp55
a(VTest_Low
p56
(L2131745L
I-1
ttp57
a(VTest_Neutral
p58
(L2131746L
I-1
ttp59
a.