(lp1
(VAverageQuantityEngineSpeed
p2
(I-1
I-1
ttp3
a(VEngineSpeedInputFiltered
p4
(L1458254L
I-1
ttp5
a(VTotalEngineSpeedInput
p6
(L1458472L
I-1
ttp7
a(VEngineSpeedInputArray
p8
(L1460092L
I-1
ttp9
a(VEngineSpeed
p10
(L1458476L
I-1
ttp11
a.