(lp1
(VMainLoop
p2
(I622848
I-1
ttp3
a(VIcon_Status_L04
p4
(I557487
I-1
ttp5
a(VIcon_Status_L11
p6
(I538933
I-1
ttp7
a(VIcon_Status_L12
p8
(I622842
I-1
ttp9
a(VDateTimeNow
p10
(L555572L
I-1
ttp11
a(VDateTimeUpdate
p12
(L555580L
I-1
ttp13
a(VSetDateTime
p14
(L555588L
I-1
ttp15
a(VTotalTripMeter
p16
(L538972L
I-1
ttp17
a(VDateNow
p18
(L555592L
I-1
ttp19
a(VDateOnScreen
p20
(L555596L
I-1
ttp21
a(VTimeNow
p22
(L555860L
I-1
ttp23
a(VTimeOnScreen
p24
(L555612L
I-1
ttp25
a(VZeroPrefixMinute
p26
(L556128L
I-1
ttp27
a(VZeroPrefixDay
p28
(L556656L
I-1
ttp29
a(VScreenLight
p30
(L557804L
I-1
ttp31
a(VScreenLightSet
p32
(L557806L
I-1
ttp33
a(VScreenLight_BO
p34
(L557805L
I-1
ttp35
a(VShowBrightnessBar
p36
(L555589L
I-1
ttp37
a(VBrightnessBarTOF
p38
(L556920L
I-1
ttp39
a(VDayUpdate
p40
(L555590L
I-1
ttp41
a(VMonthUpdate
p42
(L555858L
I-1
ttp43
a(VYearUpdate
p44
(L556126L
I-1
ttp45
a(VHourUpdate
p46
(L556390L
I-1
ttp47
a(VMinuteUpdate
p48
(L556392L
I-1
ttp49
a(VDateStringUpdate
p50
(L556940L
I-1
ttp51
a(VTimeStringUpdate
p52
(L557204L
I-1
ttp53
a(VDateTimeUpdating
p54
(L556394L
I-1
ttp55
a(VInfoNo
p56
(L556395L
I-1
ttp57
a(VTotalAlarm
p58
(L556498L
I-1
ttp59
a(VActiveAlarm
p60
(L556396L
I-1
ttp61
a(VindexAlarm
p62
(L556496L
I-1
ttp63
a(VStat_MirrorCamera
p64
(L556497L
I-1
ttp65
a(VRTRIG_Cam
p66
(I622812
I-1
ttp67
a(VinSideTemperature
p68
(I557496
I-1
ttp69
a(VoutSideTemperature
p70
(I554996
I-1
ttp71
a(VvehicleAngleX
p72
(I557760
I-1
ttp73
a(VvehicleAngleY
p74
(I555270
I-1
ttp75
a(VSWVersionOnScreen
p76
(I555304
I-1
ttp77
a(VSWVersion
p78
(I557790
I-1
ttp79
a(VSWVersion_Stat
p80
(I622806
I-1
ttp81
a(VSWVersion_TRIG
p82
(I622832
I-1
ttp83
a(VnullString
p84
(I622860
I-1
ttp85
a(VSWVersion_TERA
p86
(I-1
I-1
ttp87
a(VAuxPressureLowOnScreen
p88
(L555864L
I-1
ttp89
a(VAuxPressureLow_Stat
p90
(L555688L
I-1
ttp91
a(VScreenTripMeter
p92
(L555692L
I-1
ttp93
a.