(lp1
(VVehicleSpeed
p2
(I2097415
I-1
ttp3
a(VWheelCircle
p4
(I-1
I-1
ttp5
a(VWheelRPM
p6
(I2097416
I-1
ttp7
a(VDropboxRPM
p8
(I2097418
I-1
ttp9
a(VUnderCarriageGearRatio
p10
(I-1
I-1
ttp11
a(VTransOutputShaftSpeed
p12
(I2097420
I-1
ttp13
a(VDropboxGearRatio_Curr
p14
(I2097422
I-1
ttp15
a(VDropboxGearRatio_High
p16
(I-1
I-1
ttp17
a(VDropboxGearRatio_Low
p18
(I-1
I-1
ttp19
a(VVehicleSpeed2
p20
(L2131682L
I-1
ttp21
a(VEEC1_EngineSpeed2
p22
(L2131711L
I-1
ttp23
a(VFuel_Level_2
p24
(L2131692L
I-1
ttp25
a(VTransOilTemperature2
p26
(L2131721L
I-1
ttp27
a(VEngineTempValue2
p28
(L2131722L
I-1
ttp29
a(VEngineOilPressure2
p30
(L2131723L
I-1
ttp31
a(Vtest_bit
p32
(L2131724L
I-1
ttp33
a(Vtest_bit2
p34
(L2131725L
I-1
ttp35
a(Vtest_bit3
p36
(L2131726L
I-1
ttp37
a(Vtest_bit4
p38
(L2131739L
I-1
ttp39
a(Vtest_bit5
p40
(L2131740L
I-1
ttp41
a.