(lp1
(VMainLoop
p2
(L1458176L
I-1
ttp3
a(VIcon_Status_L04
p4
(I1329718
I-1
ttp5
a(VIcon_Status_L11
p6
(I1329719
I-1
ttp7
a(VIcon_Status_L12
p8
(I1329720
I-1
ttp9
a(VDateTimeNow
p10
(I1329722
I-1
ttp11
a(VDateTimeUpdate
p12
(I1329730
I-1
ttp13
a(VSetDateTime
p14
(I1329738
I-1
ttp15
a(VTotalTripMeter
p16
(L1462934L
I-1
ttp17
a(VTotalTripMeter2
p18
(L1462942L
I-1
ttp19
a(VTotalOdometer
p20
(L1462938L
I-1
ttp21
a(VTotalOdometer2
p22
(L1462946L
I-1
ttp23
a(VTotalTripMeterX
p24
(L1462950L
I-1
ttp25
a(VGIGAOdometerBackup
p26
(L1462954L
I-1
ttp27
a(VDateNow
p28
(I1329740
I-1
ttp29
a(VDateOnScreen
p30
(I1329744
I-1
ttp31
a(VTimeNow
p32
(I1329760
I-1
ttp33
a(VTimeOnScreen
p34
(I1329764
I-1
ttp35
a(VZeroPrefixMinute
p36
(I1329774
I-1
ttp37
a(VZeroPrefixDay
p38
(I1330036
I-1
ttp39
a(VScreenLight
p40
(I1330297
I-1
ttp41
a(VScreenLight_BO
p42
(I1330298
I-1
ttp43
a(VShowBrightnessBar
p44
(I1330299
I-1
ttp45
a(VBrightnessBarTOF
p46
(I1330300
I-1
ttp47
a(VDayUpdate
p48
(I1330316
I-1
ttp49
a(VMonthUpdate
p50
(I1330318
I-1
ttp51
a(VYearUpdate
p52
(I1330320
I-1
ttp53
a(VHourUpdate
p54
(I1330322
I-1
ttp55
a(VMinuteUpdate
p56
(I1330324
I-1
ttp57
a(VDateStringUpdate
p58
(I1330326
I-1
ttp59
a(VTimeStringUpdate
p60
(I1330588
I-1
ttp61
a(VDateTimeUpdating
p62
(I1330849
I-1
ttp63
a(VBrightnessUpdating
p64
(I1330850
I-1
ttp65
a(VInfoNo
p66
(I1330851
I-1
ttp67
a(VInfoNo2
p68
(I1330852
I-1
ttp69
a(VInfoNo3
p70
(I1330853
I-1
ttp71
a(VInfoNo4
p72
(I1330854
I-1
ttp73
a(VInfoNo5
p74
(I1330855
I-1
ttp75
a(VInfoNo6
p76
(I1330856
I-1
ttp77
a(VTotalAlarm
p78
(I1330857
I-1
ttp79
a(VTotalAlarm2
p80
(I1330858
I-1
ttp81
a(VindexAlarm
p82
(I1330859
I-1
ttp83
a(VindexAlarm2
p84
(I1330860
I-1
ttp85
a(VStat_MirrorCamera
p86
(I1330861
I-1
ttp87
a(VRTRIG_Cam
p88
(I1330862
I-1
ttp89
a(VinSideTemperature
p90
(I1330868
I-1
ttp91
a(VoutSideTemperature
p92
(I1331130
I-1
ttp93
a(VvehicleAngleX
p94
(I1331392
I-1
ttp95
a(VvehicleAngleY
p96
(I1331394
I-1
ttp97
a(VSWVersionOnScreen
p98
(I1331396
I-1
ttp99
a(VSWVersion
p100
(I1331658
I-1
ttp101
a(VSWVersion_Stat
p102
(I1331660
I-1
ttp103
a(VSWVersion_TRIG
p104
(I1331662
I-1
ttp105
a(VnullString
p106
(I1331668
I-1
ttp107
a(VSWVersion_GIGA
p108
(I-1
I-1
ttp109
a(VSWVersion_MC2M
p110
(I-1
I-1
ttp111
a(VAuxPressureLowOnScreen
p112
(I1331930
I-1
ttp113
a(VAuxPressureLow_Stat
p114
(I1332191
I-1
ttp115
a(VScreenTripMeter
p116
(I1332192
I-1
ttp117
a(Vled_tmp
p118
(I1332196
I-1
ttp119
a(VBacklight
p120
(I1332198
I-1
ttp121
a(VBacklightScreen
p122
(I1332200
I-1
ttp123
a(VGIGASpeed
p124
(I1332202
I-1
ttp125
a(VGIGAEngineSpeed
p126
(I1332204
I-1
ttp127
a(VGIGAFuelLevel
p128
(I1332206
I-1
ttp129
a(VGIGAEngineTempValue
p130
(I1332208
I-1
ttp131
a(VGIGAEngineOilPressure
p132
(I1332210
I-1
ttp133
a(VGIGATransOilTemperature
p134
(I1332212
I-1
ttp135
a(Vled_tmp_prev
p136
(I1332214
I-1
ttp137
a(VBacklight_prev
p138
(I1332216
I-1
ttp139
a(VSaveParameter
p140
(I1332218
I-1
ttp141
a(VEngineProtectionERROnScreen
p142
(I1332220
I-1
ttp143
a(VActiveAlarm
p144
(I1332482
I-1
ttp145
a(VActiveAlarm2
p146
(I1332582
I-1
ttp147
a(VBuzzer_Frequency
p148
(I1332682
I-1
ttp149
a(VBuzzer_Level
p150
(I1332684
I-1
ttp151
a(VBuzzer_Loop
p152
(I1332686
I-1
ttp153
a(VCmd_Buzzer_Ctr
p154
(I1332690
I-1
ttp155
a(VCmd_Buzzer_Ctr2
p156
(I1332694
I-1
ttp157
a(VBIT_Test_Init
p158
(I1332698
I-1
ttp159
a(VStat_Buzzer
p160
(I1332699
I-1
ttp161
a(VCmd_Buzzer
p162
(I1332700
I-1
ttp163
a(VIgnitionOn
p164
(L1458182L
I-1
ttp165
a(VMenuVar
p166
(L1458183L
I-1
ttp167
a(VTestvar
p168
(L1458184L
I-1
ttp169
a(VTestvar2
p170
(L1458185L
I-1
ttp171
a(VScreenOdometer
p172
(L1458192L
I-1
ttp173
a(VGIGAMenuNo
p174
(L1458191L
I-1
ttp175
a(VGIGAMenuVar01
p176
(L1458196L
I-1
ttp177
a(VGIGAMenuVar02
p178
(L1458197L
I-1
ttp179
a(VGIGAMenuVar03
p180
(L1458198L
I-1
ttp181
a(VGIGAMenuVar04
p182
(L1458199L
I-1
ttp183
a(VGIGAMenuVar05
p184
(L1458188L
I-1
ttp185
a(VGIGAMenuVar06
p186
(L1458769L
I-1
ttp187
a(VGIGAMenuVar07
p188
(L1458770L
I-1
ttp189
a(VGIGAMenuVar08
p190
(L1458771L
I-1
ttp191
a(VGIGAFuelAlarm
p192
(L1458186L
I-1
ttp193
a(VActiveScreen
p194
(L1458187L
I-1
ttp195
a(VStat_GIGAMenu_Ctr1
p196
(L1458200L
I-1
ttp197
a(VCmd_GIGAMenu_Active
p198
(L1458189L
I-1
ttp199
a(VMinuteUptOnScreen
p200
(L1458204L
I-1
ttp201
a(VDateOnScreen2
p202
(L1458216L
I-1
ttp203
a(Vcolord
p204
(L1458180L
I-1
ttp205
a(VHourUptOnScreen
p206
(L1458496L
I-1
ttp207
a(VDayUptOnScreen
p208
(L1458232L
I-1
ttp209
a(VMonthUptOnScreen
p210
(L1458244L
I-1
ttp211
a(VYearUptOnScreen
p212
(L1458256L
I-1
ttp213
a(VScreenBrightHUptOnScreen
p214
(L1461896L
I-1
ttp215
a(VScreenBrightLUptOnScreen
p216
(L1461908L
I-1
ttp217
a(VPanelBrightHUptOnScreen
p218
(L1461920L
I-1
ttp219
a(VPanelBrightLUptOnScreen
p220
(L1461932L
I-1
ttp221
a(VScreenBrightH
p222
(L1461954L
I-1
ttp223
a(VScreenBrightL
p224
(L1461956L
I-1
ttp225
a(VPanelBrightH
p226
(L1461958L
I-1
ttp227
a(VPanelBrightL
p228
(L1461960L
I-1
ttp229
a(VSubMenuVar
p230
(L1458181L
I-1
ttp231
a(VSubMenuVar2
p232
(L1458231L
I-1
ttp233
a(VDiagMessage01
p234
(L1458508L
I-1
ttp235
a(VDiagMessage02
p236
(L1458772L
I-1
ttp237
a(VDiagMessage03
p238
(L1459036L
I-1
ttp239
a(VDiagMessage04
p240
(L1459300L
I-1
ttp241
a(VDiagMessage05
p242
(L1459564L
I-1
ttp243
a(VDiagMessage06
p244
(L1459828L
I-1
ttp245
a(VDiagMessage07
p246
(L1461104L
I-1
ttp247
a(VDiagMessage08
p248
(L1461368L
I-1
ttp249
a(VDiagMessage09
p250
(L1461632L
I-1
ttp251
a(VSecret_Menu01
p252
(L1458190L
I-1
ttp253
a(VInputFiltered_BatteryLevel
p254
(I1332702
I-1
ttp255
a(VTotalInput_BatteryLevel
p256
(I1332704
I-1
ttp257
a(VInputArray_BatteryLevel
p258
(I1332708
I-1
ttp259
a(VLimit_BatteryLevel
p260
(I-1
I-1
ttp261
a(VAlarmState_BatteryLevel
p262
(I1332768
I-1
ttp263
a(VAverageQuantity_BatteryLevel
p264
(I-1
I-1
ttp265
a(VGIGALedOverride
p266
(I1332769
I-1
ttp267
a(VGIGAGaugeOverride0
p268
(I1332770
I-1
ttp269
a(VGIGAGaugeOverride1
p270
(I1332772
I-1
ttp271
a(VGIGAGaugeOverride2
p272
(I1332774
I-1
ttp273
a(VGIGAGaugeOverride3
p274
(I1332776
I-1
ttp275
a(VGIGAGaugeOverride4
p276
(I1332778
I-1
ttp277
a(VGIGAGaugeOverride5
p278
(I1332780
I-1
ttp279
a(VGIGABarGaugeOverride
p280
(I1332782
I-1
ttp281
a(Vtmp_DIGIN_KEY_K15
p282
(L1461942L
I-1
ttp283
a(VLight_An_Inp
p284
(I1332784
I-1
ttp285
a(VBacklightSetVarH
p286
(L1461946L
I-1
ttp287
a(VBacklightSetVarL
p288
(L1461948L
I-1
ttp289
a(VBacklightScreenSetVarH
p290
(L1461950L
I-1
ttp291
a(VBacklightScreenSetVarL
p292
(L1461952L
I-1
ttp293
a(Vgiga_button_test_var
p294
(L1461963L
I-1
ttp295
a(VVt3_languageSetVar
p296
(L1461964L
I-1
ttp297
a(Vtoggle_500ms
p298
(I1332786
I-1
ttp299
a(Vtoggle_200ms
p300
(I1332787
I-1
ttp301
a.