(lp1
(VStat_interiorVentilation_1
p2
(L2129078L
I-1
ttp3
a(VStat_interiorVentilation_2
p4
(L2129093L
I-1
ttp5
a(Vstat_VehicleOn
p6
(L2129094L
I-1
ttp7
a(VtankResistanceLimit
p8
(L2131680L
I-1
ttp9
a(Vstat_ResistanceShould
p10
(L2129095L
I-1
ttp11
a(VfuelTank_1_Temperature
p12
(L2129096L
I-1
ttp13
a(VfuelTank_2_Temperature
p14
(L2129097L
I-1
ttp15
a(VStat_FireFighter
p16
(L2129098L
I-1
ttp17
a(VFan_TON
p18
(I2103107
I-1
ttp19
a(VfanActiveDelay
p20
(I2103123
I-1
ttp21
a(VFire_Obj
p22
(I2103125
I-1
ttp23
a(VFireFighterActiveFanTime
p24
(L2131693L
I-1
ttp25
a(Vstat_FireFighterActiveFan
p26
(I2103141
I-1
ttp27
a(Vstat_FireFighterActiveFan_2
p28
(I2103142
I-1
ttp29
a(VengineSpeedRPMConstant
p30
(L2131691L
I-1
ttp31
a(VStat_Horn
p32
(I2103143
I-1
ttp33
a(VStat_Redresor
p34
(I2103144
I-1
ttp35
a(VStat_CentralLockSystem
p36
(I2103145
I-1
ttp37
a(VStat_MineLock
p38
(I2103146
I-1
ttp39
a(VSWConfig0
p40
(I-1
I-1
ttp41
a(VSWConfig1
p42
(I-1
I-1
ttp43
a(VSWVersions0
p44
(L2120415L
I-1
ttp45
a(VSWVersions1
p46
(L2120416L
I-1
ttp47
a(VSWVersions2
p48
(L2120417L
I-1
ttp49
a(VStat_InterBuzzer
p50
(I2103147
I-1
ttp51
a(Vstat_ResistanceShould2
p52
(I2103148
I-1
ttp53
a(VtankResistanceLimit2
p54
(L2131681L
I-1
ttp55
a(VCmd_4x4_Buzzer_Ctr1
p56
(I2103149
I-1
ttp57
a(VStat_4x4_Buzzer1
p58
(I2103153
I-1
ttp59
a(VCmd_4x4_Buzzer_Ctr2
p60
(I2103154
I-1
ttp61
a(VStat_4x4_Buzzer2
p62
(I2103158
I-1
ttp63
a(VCmd_4x4_Buzzer_Ctr3
p64
(I2103159
I-1
ttp65
a(VStat_4x4_Buzzer3
p66
(I2103163
I-1
ttp67
a(VStat_4x4_Buzzer4
p68
(I2103164
I-1
ttp69
a(VStat_4x4_Buzzer
p70
(I2103165
I-1
ttp71
a(VT50TankTempDownLimit
p72
(L2124233L
I-1
ttp73
a(VT50TankTempUpLimit
p74
(L2124240L
I-1
ttp75
a(VFuelTempDownLimit
p76
(L2124241L
I-1
ttp77
a(VFuelTempUpLimit
p78
(L2124243L
I-1
ttp79
a(VLimit_WebastoTankMinTemperature
p80
(I-1
I-1
ttp81
a(VCmd_T50FuelHeater
p82
(I2103166
I-1
ttp83
a(VStat_FuelTemp
p84
(I2103167
I-1
ttp85
a(VStat_T50TankTemp
p86
(I2103168
I-1
ttp87
a(VCmd_T50TankResistance
p88
(I2103169
I-1
ttp89
a(VCmd_Bypass_Switch
p90
(I2103170
I-1
ttp91
a(VTriggerCentralLockSystemEnable
p92
(I2103171
I-1
ttp93
a(VTriggerCentralLockSystemDisable
p94
(I2103176
I-1
ttp95
a.