(lp1
(VEBS_dataMatrix
p2
(I2101449
I-1
ttp3
a(VEBS_offsetDataTabelV
p4
(I2102649
I-1
ttp5
a(VEBS_offsetDataTabelH
p6
(I2102651
I-1
ttp7
a(VEBS_Table_RED_Lamp
p8
(I2102653
I-1
ttp9
a(VEBS_Table_AMBER_Lamp
p10
(I2102654
I-1
ttp11
a.