(lp1
(VFUELLEVEL0_L
p2
(I-1
I-1
ttp3
a(VFUELLEVEL1_L
p4
(I-1
I-1
ttp5
a(VFUELLEVEL2_L
p6
(I-1
I-1
ttp7
a(VFUELLEVEL3_L
p8
(I-1
I-1
ttp9
a(VFUELLEVEL4_L
p10
(I-1
I-1
ttp11
a(VFUELLEVEL5_L
p12
(I2104657
I-1
ttp13
a(VFUELLEVEL0_ANALOG_L
p14
(I-1
I-1
ttp15
a(VFUELLEVEL1_ANALOG_L
p16
(I-1
I-1
ttp17
a(VFUELLEVEL2_ANALOG_L
p18
(I-1
I-1
ttp19
a(VFUELLEVEL3_ANALOG_L
p20
(I-1
I-1
ttp21
a(VFUELLEVEL4_ANALOG_L
p22
(I-1
I-1
ttp23
a(VFUELLEVEL5_ANALOG_L
p24
(I2104659
I-1
ttp25
a(VAVGQUANTITYFUEL_L
p26
(I-1
I-1
ttp27
a(VFuelInputFiltered_L
p28
(I2104657
I-1
ttp29
a(VTotalFuelInput_L
p30
(I2104659
I-1
ttp31
a(VFuelInputArray_L
p32
(I2104663
I-1
ttp33
a(VFuelLevel_Normalized_L
p34
(I2104863
I-1
ttp35
a(VFuelLevel_Normalized2_L
p36
(I2104864
I-1
ttp37
a(VTotalFuelInput2_L
p38
(I2104865
I-1
ttp39
a(VAVGQUANTITYFUEL2_L
p40
(I-1
I-1
ttp41
a(VFuelInputArray2_L
p42
(I2104869
I-1
ttp43
a.