(lp1
(VFuelTankSelection_Tout
p2
(I-1
I2
ttp3
a(VTANK_SEL_DELAY
p4
(I-1
I-1
ttp5
a(VFUELWATER_TOUT
p6
(I-1
I-1
ttp7
a(VFuelWaterTout
p8
(I-1
I4
ttp9
a(VFuelLevelState
p10
(I-1
I6
ttp11
a(VReq_Tank1_Valve_Draw
p12
(I-1
I7
ttp13
a(VReq_Tank1_Valve_Return
p14
(I-1
I8
ttp15
a(VReq_Tank2_Valve_Draw
p16
(I-1
I9
ttp17
a(VReq_Tank2_Valve_Return
p18
(I-1
I10
ttp19
a(VBuf_Tank1_Valve_Draw
p20
(I-1
I11
ttp21
a(VBuf_Tank1_Valve_Return
p22
(I-1
I12
ttp23
a(VBuf_Tank2_Valve_Draw
p24
(I-1
I13
ttp25
a(VBuf_Tank2_Valve_Return
p26
(I-1
I14
ttp27
a(VReq_Pump_Speed_Command
p28
(I-1
I15
ttp29
a(VReq_Pump_Command
p30
(I-1
I16
ttp31
a(VReq_FuelWater_Evacuation
p32
(I-1
I17
ttp33
a(VTankControlState
p34
(I-1
I18
ttp35
a(VTankControlTout
p36
(I-1
I19
ttp37
a(VState_TankSelect_Left
p38
(I-1
I20
ttp39
a(VState_TankSelect_Right
p40
(I-1
I21
ttp41
a(VTankSelectTout
p42
(I-1
I22
ttp43
a(VTANKSELECTTOUT_VAL
p44
(I-1
I-1
ttp45
a(VEvacuationValve_state
p46
(I-1
I23
ttp47
a(VEvacuationValve_tout
p48
(I-1
I24
ttp49
a(VEvacuationValve_prd
p50
(I-1
I26
ttp51
a(VIs_WFI_WaterInFuelIndicator
p52
(I-1
I28
ttp53
a.