(lp1
(VAngX_MinADC
p2
(L2124074L
I-1
ttp3
a(VAngX_MinACT
p4
(L2124076L
I-1
ttp5
a(VAngX_MaxADC
p6
(L2124078L
I-1
ttp7
a(VAngX_MaxACT
p8
(L2124080L
I-1
ttp9
a(VAngY_MinADC
p10
(L2124082L
I-1
ttp11
a(VAngY_MinACT
p12
(L2124084L
I-1
ttp13
a(VAngY_MaxADC
p14
(L2124086L
I-1
ttp15
a(VAngY_MaxACT
p16
(L2124088L
I-1
ttp17
a(VAngX_ACT
p18
(L2129107L
I-1
ttp19
a(VAngY_ACT
p20
(L2129111L
I-1
ttp21
a(VAMUCBO_AngleXOffSet
p22
(L2131717L
I-1
ttp23
a(VAMUCBO_AngleYOffSet
p24
(L2131719L
I-1
ttp25
a.