(lp1
(Vcoolant
p2
(I-1
I2
ttp3
a(Vmanifold
p4
(I-1
I3
ttp5
a(Vvvr_temp
p6
(I-1
I4
ttp7
a(Vvvr_pres
p8
(I-1
I6
ttp9
a(Vvvr_oillevel
p10
(I-1
I8
ttp11
a(Vvvr_oilfilter
p12
(I-1
I9
ttp13
a(Vvvr_pump
p14
(I-1
I10
ttp15
a(Vvvr_raw_temp
p16
(I-1
I12
ttp17
a(Vvvr_raw_pres
p18
(I-1
I14
ttp19
a(Vcoolant_calculated
p20
(I-1
I16
ttp21
a(Vmanifold_calculated
p22
(I-1
I18
ttp23
a(Vtestvar
p24
(I-1
I20
ttp25
a(Vvvr_temp_calculated
p26
(I-1
I22
ttp27
a(Vvvr_pump_interpolated
p28
(I-1
I24
ttp29
a(Vpump_trigger
p30
(I-1
I26
ttp31
a(Vvvrtestvar
p32
(I-1
I27
ttp33
a.