(lp1
(VUKAS_TCM_ShiftSelector_Button_D
p2
(I2105100
I-1
ttp3
a(VUKAS_TCM_ShiftSelector_Button_N
p4
(I2105101
I-1
ttp5
a(VUKAS_TCM_ShiftSelector_Button_R
p6
(I2105102
I-1
ttp7
a(VUKAS_ECM_Remote_Accelerator_Switch
p8
(I2105103
I-1
ttp9
a(VUKAS_ECM_Remote_Accelerator
p10
(I2105104
I-1
ttp11
a(VRemoteAcceleratorPedalPosition1
p12
(I2105105
I-1
ttp13
a(Vgear_selected
p14
(I2105106
I-1
ttp15
a.