(lp1
(VEngineTempGaugeValue_Min
p2
(L2124240L
I-1
ttp3
a(VEngineTempGaugeValue_Mid
p4
(L2124254L
I-1
ttp5
a(VEngineTempGaugeValue_Max
p6
(L2124256L
I-1
ttp7
a(VEngineTempGaugeValue_1
p8
(L2131689L
I-1
ttp9
a(VEngineTempGaugeValue_2
p10
(L2131703L
I-1
ttp11
a(VEngineTempGaugeValue_3
p12
(L2131705L
I-1
ttp13
a(VEngineTempGaugeValue_4
p14
(L2131707L
I-1
ttp15
a(VEngineTempGaugeValue_5
p16
(L2131709L
I-1
ttp17
a.