(lp1
(VHTempLevel0_ANALOG
p2
(L2123443L
I-1
ttp3
a(VHTempLevel0
p4
(L2123471L
I-1
ttp5
a(VHTempLevel1_ANALOG
p6
(L2123473L
I-1
ttp7
a(VHTempLevel1
p8
(L2123475L
I-1
ttp9
a(VHTempLevel2_ANALOG
p10
(L2123477L
I-1
ttp11
a(VHTempLevel2
p12
(L2123479L
I-1
ttp13
a(VHTempLevel3_ANALOG
p14
(L2123481L
I-1
ttp15
a(VHTempLevel3
p16
(L2123483L
I-1
ttp17
a(VHTempLevel4_ANALOG
p18
(L2123485L
I-1
ttp19
a(VHTempLevel4
p20
(L2123487L
I-1
ttp21
a(VHTempLevel5_ANALOG
p22
(I-1
I-1
ttp23
a(VHTempLevel5
p24
(I-1
I-1
ttp25
a(VHTempLevel6_ANALOG
p26
(I-1
I-1
ttp27
a(VHTempLevel6
p28
(I-1
I-1
ttp29
a(VHTempLevel7_ANALOG
p30
(I-1
I-1
ttp31
a(VHTempLevel7
p32
(I-1
I-1
ttp33
a(VHTempLevel8_ANALOG
p34
(I-1
I-1
ttp35
a(VHTempLevel8
p36
(I-1
I-1
ttp37
a(VHTempLevel9_ANALOG
p38
(I-1
I-1
ttp39
a(VHTempLevel9
p40
(I-1
I-1
ttp41
a(VHTempLevel10_ANALOG
p42
(I-1
I-1
ttp43
a(VHTempLevel10
p44
(I-1
I-1
ttp45
a.