(lp1
(VCmd_HydraulicDoorOpened
p2
(I2104198
I-1
ttp3
a(VCmd_HydraulicDoorClosed
p4
(I2104199
I-1
ttp5
a(VCmd_GunTowerDoor_1
p6
(I2104200
I-1
ttp7
a(VCmd_GunTowerDoor_2
p8
(I2104201
I-1
ttp9
a(VStat_BackDoor_IN_Open
p10
(I2104202
I-1
ttp11
a(VStat_BackDoor_OUT_Open
p12
(I2104203
I-1
ttp13
a(VStat_BackDoor_IN_Close
p14
(I2104204
I-1
ttp15
a(VStat_BackDoor_OUT_Close
p16
(I2104205
I-1
ttp17
a(VStat_BackDoorHandle_Open
p18
(I2104206
I-1
ttp19
a.