(lp1
(VBatteryLevel
p2
(I2103019
I-1
ttp3
a(VEngineTempValue
p4
(I2103021
I-1
ttp5
a(VEngineOilPressure
p6
(I2103022
I-1
ttp7
a(VTransOilTemperature
p8
(I2103023
I-1
ttp9
a(VEHR_2_TotalEngineHours
p10
(L2133737L
I-1
ttp11
a(VTotalEngineHours_Old
p12
(L2133741L
I-1
ttp13
a(VEHR_2_TotalEngineRevolutions
p14
(I2103025
I-1
ttp15
a(VEngineTempValue1
p16
(L2131677L
I-1
ttp17
a(VTCM_SuspectParameterNumber
p18
(L2128997L
I-1
ttp19
a(VTCM_FailureModeIdentifier
p20
(L2128922L
I-1
ttp21
a(VECM_SuspectParameterNumber
p22
(L2129001L
I-1
ttp23
a(VECM_FailureModeIdentifier
p24
(L2128923L
I-1
ttp25
a(VEBS_SuspectParameterNumber
p26
(L2129005L
I-1
ttp27
a(VEBS_FailureModeIdentifier
p28
(L2128924L
I-1
ttp29
a(VOdometer_EBS_FrontAxleSpeed
p30
(I2103029
I-1
ttp31
a(VECM_TotalAlarm
p32
(I2103031
I-1
ttp33
a(VECM_indexAlarm
p34
(I2103032
I-1
ttp35
a(VTCM_TotalAlarm
p36
(I2103033
I-1
ttp37
a(VTCM_indexAlarm
p38
(I2103034
I-1
ttp39
a(VEBS_TotalAlarm
p40
(I2103035
I-1
ttp41
a(VEBS_indexAlarm
p42
(I2103036
I-1
ttp43
a.