(lp1
(VCmd_BlackOut_S1
p2
(I2103063
I-1
ttp3
a(VCmd_BlackOut_S2
p4
(I2103064
I-1
ttp5
a(VCmd_BlackOut_S3
p6
(I2103065
I-1
ttp7
a(VCmd_BlackOut_Tag
p8
(I2103066
I-1
ttp9
a(VCmd_BlackOut_0
p10
(I2103067
I-1
ttp11
a(VCmd_BlackOut_1
p12
(I2103068
I-1
ttp13
a(VCmd_BlackOut_2
p14
(I2103069
I-1
ttp15
a(VCmd_BO_ParkLamp
p16
(I2103070
I-1
ttp17
a(VCmd_BO_StopLamp
p18
(I2103071
I-1
ttp19
a(VCmd_BO_FollowLight
p20
(I2103072
I-1
ttp21
a(VCmd_BlackOut
p22
(I2103073
I-1
ttp23
a.