(lp1
(VJoystickINLowLevel
p2
(I-1
I-1
ttp3
a(VJoystickINHighLevel
p4
(I-1
I-1
ttp5
a(VJoystickOutLowLevel
p6
(I-1
I-1
ttp7
a(VJoystickOutHighLevel
p8
(I-1
I-1
ttp9
a(VBrakeProportionalValue
p10
(I-1
I2
ttp11
a(VJoystickValue
p12
(I-1
I4
ttp13
a.