(lp1
(VECM_dataMatrix
p2
(I2097942
I-1
ttp3
a(VECM_offsetDataTabelV
p4
(I2099142
I-1
ttp5
a(VECM_offsetDataTabelH
p6
(I2099144
I-1
ttp7
a(VECM_Table_RED_Lamp
p8
(I2099146
I-1
ttp9
a(VECM_Table_AMBER_Lamp
p10
(I2099147
I-1
ttp11
a.