(lp1
(Vxm
p2
(I-1
I-1
ttp3
a(Vx1
p4
(I-1
I-1
ttp5
a(Vx2
p6
(I-1
I-1
ttp7
a(Vy1
p8
(I-1
I-1
ttp9
a(Vy2
p10
(I-1
I-1
ttp11
a(VDataA
p12
(I-1
I-1
ttp13
a(VDataB
p14
(I-1
I-1
ttp15
a(VDataC
p16
(I-1
I-1
ttp17
a(VDataD
p18
(I-1
I-1
ttp19
a(VFUNC
p20
(I-1
I-1
ttp21
a.